target datalayout = "e-m:e-p270:32:32-p271:32:32-p272:64:64-i64:64-i128:128-f80:128-n8:16:32:64-S128"
target triple = "x86_64-pc-linux-gnu"

%"class.grpc_core::Chttp2WriteSizePolicy" = type <{ i64, %"class.grpc_core::Timestamp", i8, [7 x i8] }>
%"class.grpc_core::Timestamp" = type { i64 }
%"class.absl::lts_20240722::log_internal::Voidify" = type { i8 }
%"class.absl::lts_20240722::log_internal::LogMessageFatal" = type { %"class.absl::lts_20240722::log_internal::LogMessage" }
%"class.absl::lts_20240722::log_internal::LogMessage" = type { %"class.absl::lts_20240722::base_internal::ErrnoSaver", %"class.std::unique_ptr" }
%"class.absl::lts_20240722::base_internal::ErrnoSaver" = type { i32 }
%"class.std::unique_ptr" = type { %"struct.std::__uniq_ptr_data" }
%"struct.std::__uniq_ptr_data" = type { %"class.std::__uniq_ptr_impl" }
%"class.std::__uniq_ptr_impl" = type { %"class.std::tuple" }
%"class.std::tuple" = type { %"struct.std::_Tuple_impl" }
%"struct.std::_Tuple_impl" = type { %"struct.std::_Head_base.1" }
%"struct.std::_Head_base.1" = type { ptr }
%"class.std::basic_string_view" = type { i64, ptr }

@.str = private unnamed_addr constant [148 x i8] c"generated/home/dtcxzyw/WorkSpace/Projects/compilers/llvm-opt-benchmark/bench/grpc/grpc/src/core/ext/transport/chttp2/transport/write_size_policy.cc\00", align 1
@.str.1 = private unnamed_addr constant [49 x i8] c"experiment_start_time_ == Timestamp::InfFuture()\00", align 1
@_ZN9grpc_core9Timestamp25thread_local_time_source_E = external thread_local global ptr, align 8

; Function Attrs: uwtable
define linkonce_odr hidden noundef ptr @_ZTWN9grpc_core9Timestamp25thread_local_time_source_E() #14 comdat {
  %1 = icmp ne ptr @_ZTHN9grpc_core9Timestamp25thread_local_time_source_E, null
  br i1 %1, label %2, label %3

2:                                                ; preds = %0
  call void @_ZTHN9grpc_core9Timestamp25thread_local_time_source_E()
  br label %3

3:                                                ; preds = %2, %0
  %4 = call align 8 ptr @llvm.threadlocal.address.p0(ptr align 8 @_ZN9grpc_core9Timestamp25thread_local_time_source_E)
  ret ptr %4
}

; Function Attrs: noinline noreturn nounwind uwtable
define linkonce_odr hidden void @__clang_call_terminate(ptr noundef %0) #13 comdat {
  %2 = call ptr @__cxa_begin_catch(ptr %0) #3
  call void @_ZSt9terminatev() #17
  unreachable
}

; Function Attrs: mustprogress nounwind uwtable
define linkonce_odr noundef i64 @_ZNSt11char_traitsIcE6lengthEPKc(ptr noundef %0) #4 comdat align 2 {
  %2 = alloca ptr, align 8
  store ptr %0, ptr %2, align 8, !tbaa !24
  %3 = load ptr, ptr %2, align 8, !tbaa !24
  %4 = call i64 @strlen(ptr noundef %3) #3
  ret i64 %4
}

; Function Attrs: mustprogress nounwind uwtable
define linkonce_odr void @_ZN9grpc_core9TimestampC2El(ptr noundef nonnull align 8 dereferenceable(8) %0, i64 noundef %1) unnamed_addr #4 comdat align 2 {
  %3 = alloca ptr, align 8
  %4 = alloca i64, align 8
  store ptr %0, ptr %3, align 8, !tbaa !15
  store i64 %1, ptr %4, align 8, !tbaa !12
  %5 = load ptr, ptr %3, align 8
  %6 = getelementptr inbounds nuw %"class.grpc_core::Timestamp", ptr %5, i32 0, i32 0
  %7 = load i64, ptr %4, align 8, !tbaa !12
  store i64 %7, ptr %6, align 8, !tbaa !17
  ret void
}

; Function Attrs: mustprogress nounwind uwtable
define linkonce_odr noundef i64 @_ZNSt14numeric_limitsIlE3maxEv() #4 comdat align 2 {
  ret i64 9223372036854775807
}

; Function Attrs: mustprogress uwtable
define linkonce_odr i64 @_ZN9grpc_core9Timestamp3NowEv() #5 comdat align 2 {
  %1 = alloca %"class.grpc_core::Timestamp", align 8
  %2 = call ptr @_ZTWN9grpc_core9Timestamp25thread_local_time_source_E()
  %3 = load ptr, ptr %2, align 8, !tbaa !29
  %4 = load ptr, ptr %3, align 8, !tbaa !31
  %5 = getelementptr inbounds ptr, ptr %4, i64 0
  %6 = load ptr, ptr %5, align 8
  %7 = call i64 %6(ptr noundef nonnull align 8 dereferenceable(8) %3)
  %8 = getelementptr inbounds nuw %"class.grpc_core::Timestamp", ptr %1, i32 0, i32 0
  store i64 %7, ptr %8, align 8
  %9 = getelementptr inbounds nuw %"class.grpc_core::Timestamp", ptr %1, i32 0, i32 0
  %10 = load i64, ptr %9, align 8
  ret i64 %10
}

; Function Attrs: mustprogress nounwind uwtable
define linkonce_odr void @_ZNKO4absl12lts_2024072212log_internal7VoidifyaaINS1_10LogMessageEEEvRKT_(ptr noundef nonnull align 1 dereferenceable(1) %0, ptr noundef nonnull align 8 dereferenceable(16) %1) #4 comdat align 2 {
  %3 = alloca ptr, align 8
  %4 = alloca ptr, align 8
  store ptr %0, ptr %3, align 8, !tbaa !18
  store ptr %1, ptr %4, align 8, !tbaa !20
  ret void
}

; Function Attrs: mustprogress nounwind uwtable
define linkonce_odr noundef nonnull align 8 dereferenceable(16) ptr @_ZN4absl12lts_2024072212log_internal10LogMessage14InternalStreamEv(ptr noundef nonnull align 8 dereferenceable(16) %0) #4 comdat align 2 {
  %2 = alloca ptr, align 8
  store ptr %0, ptr %2, align 8, !tbaa !20
  %3 = load ptr, ptr %2, align 8
  ret ptr %3
}

; Function Attrs: mustprogress nounwind uwtable
define linkonce_odr void @_ZNSt17basic_string_viewIcSt11char_traitsIcEEC2EPKc(ptr noundef nonnull align 8 dereferenceable(16) %0, ptr noundef nonnull %1) unnamed_addr #4 comdat align 2 personality ptr @__gxx_personality_v0 {
  %3 = alloca ptr, align 8
  %4 = alloca ptr, align 8
  store ptr %0, ptr %3, align 8, !tbaa !22
  store ptr %1, ptr %4, align 8, !tbaa !24
  %5 = load ptr, ptr %3, align 8
  %6 = getelementptr inbounds nuw %"class.std::basic_string_view", ptr %5, i32 0, i32 0
  %7 = load ptr, ptr %4, align 8, !tbaa !24
  %8 = invoke noundef i64 @_ZNSt11char_traitsIcE6lengthEPKc(ptr noundef %7)
          to label %9 unwind label %12

9:                                                ; preds = %2
  store i64 %8, ptr %6, align 8, !tbaa !26
  %10 = getelementptr inbounds nuw %"class.std::basic_string_view", ptr %5, i32 0, i32 1
  %11 = load ptr, ptr %4, align 8, !tbaa !24
  store ptr %11, ptr %10, align 8, !tbaa !28
  ret void

12:                                               ; preds = %2
  %13 = landingpad { ptr, i32 }
          catch ptr null
  %14 = extractvalue { ptr, i32 } %13, 0
  call void @__clang_call_terminate(ptr %14) #17
  unreachable
}

; Function Attrs: mustprogress nounwind uwtable
define linkonce_odr noundef zeroext i1 @_ZNK9grpc_core9TimestampeqES0_(ptr noundef nonnull align 8 dereferenceable(8) %0, i64 %1) #4 comdat align 2 {
  %3 = alloca %"class.grpc_core::Timestamp", align 8
  %4 = alloca ptr, align 8
  %5 = getelementptr inbounds nuw %"class.grpc_core::Timestamp", ptr %3, i32 0, i32 0
  store i64 %1, ptr %5, align 8
  store ptr %0, ptr %4, align 8, !tbaa !15
  %6 = load ptr, ptr %4, align 8
  %7 = getelementptr inbounds nuw %"class.grpc_core::Timestamp", ptr %6, i32 0, i32 0
  %8 = load i64, ptr %7, align 8, !tbaa !17
  %9 = getelementptr inbounds nuw %"class.grpc_core::Timestamp", ptr %3, i32 0, i32 0
  %10 = load i64, ptr %9, align 8, !tbaa !17
  %11 = icmp eq i64 %8, %10
  ret i1 %11
}

; Function Attrs: mustprogress uwtable
define linkonce_odr i64 @_ZN9grpc_core9Timestamp9InfFutureEv() #5 comdat align 2 {
  %1 = alloca %"class.grpc_core::Timestamp", align 8
  %2 = call noundef i64 @_ZNSt14numeric_limitsIlE3maxEv() #3
  call void @_ZN9grpc_core9TimestampC2El(ptr noundef nonnull align 8 dereferenceable(8) %1, i64 noundef %2)
  %3 = getelementptr inbounds nuw %"class.grpc_core::Timestamp", ptr %1, i32 0, i32 0
  %4 = load i64, ptr %3, align 8
  ret i64 %4
}

; Function Attrs: mustprogress uwtable
define void @_ZN9grpc_core21Chttp2WriteSizePolicy10BeginWriteEm(ptr noundef nonnull align 8 dereferenceable(17) %0, i64 noundef %1) #5 align 2 personality ptr @__gxx_personality_v0 {
  %3 = alloca ptr, align 8
  %4 = alloca i64, align 8
  %5 = alloca %"class.grpc_core::Timestamp", align 8
  %6 = alloca %"class.absl::lts_20240722::log_internal::Voidify", align 1
  %7 = alloca %"class.absl::lts_20240722::log_internal::LogMessageFatal", align 8
  %8 = alloca i1, align 1
  %9 = alloca %"class.std::basic_string_view", align 8
  %10 = alloca i1, align 1
  %11 = alloca ptr, align 8
  %12 = alloca i32, align 4
  %13 = alloca %"class.grpc_core::Timestamp", align 8
  store ptr %0, ptr %3, align 8, !tbaa !3
  store i64 %1, ptr %4, align 8, !tbaa !12
  %14 = load ptr, ptr %3, align 8
  %15 = getelementptr inbounds nuw %"class.grpc_core::Chttp2WriteSizePolicy", ptr %14, i32 0, i32 1
  %16 = call i64 @_ZN9grpc_core9Timestamp9InfFutureEv()
  %17 = getelementptr inbounds nuw %"class.grpc_core::Timestamp", ptr %5, i32 0, i32 0
  store i64 %16, ptr %17, align 8
  %18 = getelementptr inbounds nuw %"class.grpc_core::Timestamp", ptr %5, i32 0, i32 0
  %19 = load i64, ptr %18, align 8
  %20 = call noundef zeroext i1 @_ZNK9grpc_core9TimestampeqES0_(ptr noundef nonnull align 8 dereferenceable(8) %15, i64 %19)
  %21 = xor i1 %20, true
  %22 = zext i1 %21 to i64
  %23 = call i64 @llvm.expect.i64(i64 %22, i64 0)
  %24 = icmp ne i64 %23, 0
  call void @llvm.lifetime.start.p0(i64 1, ptr %6) #3
  store i1 false, ptr %8, align 1
  store i1 false, ptr %10, align 1
  br i1 %24, label %26, label %25

25:                                               ; preds = %2
  br label %34

26:                                               ; preds = %2
  call void @llvm.lifetime.start.p0(i64 16, ptr %7) #3
  store i1 true, ptr %8, align 1
  call void @_ZNSt17basic_string_viewIcSt11char_traitsIcEEC2EPKc(ptr noundef nonnull align 8 dereferenceable(16) %9, ptr noundef @.str.1) #3
  %27 = getelementptr inbounds nuw { i64, ptr }, ptr %9, i32 0, i32 0
  %28 = load i64, ptr %27, align 8
  %29 = getelementptr inbounds nuw { i64, ptr }, ptr %9, i32 0, i32 1
  %30 = load ptr, ptr %29, align 8
  call void @_ZN4absl12lts_2024072212log_internal15LogMessageFatalC1EPKciSt17basic_string_viewIcSt11char_traitsIcEE(ptr noundef nonnull align 8 dereferenceable(16) %7, ptr noundef @.str, i32 noundef 28, i64 %28, ptr %30) #16
  store i1 true, ptr %10, align 1
  %31 = invoke noundef nonnull align 8 dereferenceable(16) ptr @_ZN4absl12lts_2024072212log_internal10LogMessage14InternalStreamEv(ptr noundef nonnull align 8 dereferenceable(16) %7)
          to label %32 unwind label %37

32:                                               ; preds = %26
  invoke void @_ZNKO4absl12lts_2024072212log_internal7VoidifyaaINS1_10LogMessageEEEvRKT_(ptr noundef nonnull align 1 dereferenceable(1) %6, ptr noundef nonnull align 8 dereferenceable(16) %31)
          to label %33 unwind label %37

33:                                               ; preds = %32
  br label %34

34:                                               ; preds = %33, %25
  %35 = load i1, ptr %10, align 1
  br i1 %35, label %36, label %43

36:                                               ; preds = %34
  call void @_ZN4absl12lts_2024072212log_internal15LogMessageFatalD1Ev(ptr noundef nonnull align 8 dereferenceable(16) %7) #17
  unreachable

37:                                               ; preds = %32, %26
  %38 = landingpad { ptr, i32 }
          cleanup
  %39 = extractvalue { ptr, i32 } %38, 0
  store ptr %39, ptr %11, align 8
  %40 = extractvalue { ptr, i32 } %38, 1
  store i32 %40, ptr %12, align 4
  %41 = load i1, ptr %10, align 1
  br i1 %41, label %60, label %62

42:                                               ; No predecessors!
  br label %43

43:                                               ; preds = %42, %34
  %44 = load i1, ptr %8, align 1
  br i1 %44, label %45, label %46

45:                                               ; preds = %43
  call void @llvm.lifetime.end.p0(i64 16, ptr %7) #3
  br label %46

46:                                               ; preds = %45, %43
  call void @llvm.lifetime.end.p0(i64 1, ptr %6) #3
  %47 = load i64, ptr %4, align 8, !tbaa !12
  %48 = getelementptr inbounds nuw %"class.grpc_core::Chttp2WriteSizePolicy", ptr %14, i32 0, i32 0
  %49 = load i64, ptr %48, align 8, !tbaa !8
  %50 = mul i64 %49, 7
  %51 = udiv i64 %50, 10
  %52 = icmp ult i64 %47, %51
  br i1 %52, label %53, label %67

53:                                               ; preds = %46
  %54 = getelementptr inbounds nuw %"class.grpc_core::Chttp2WriteSizePolicy", ptr %14, i32 0, i32 2
  %55 = load i8, ptr %54, align 8, !tbaa !13
  %56 = sext i8 %55 to i32
  %57 = icmp slt i32 %56, 0
  br i1 %57, label %58, label %66

58:                                               ; preds = %53
  %59 = getelementptr inbounds nuw %"class.grpc_core::Chttp2WriteSizePolicy", ptr %14, i32 0, i32 2
  store i8 0, ptr %59, align 8, !tbaa !13
  br label %66

60:                                               ; preds = %37
  call void @_ZN4absl12lts_2024072212log_internal15LogMessageFatalD1Ev(ptr noundef nonnull align 8 dereferenceable(16) %7) #17
  unreachable

61:                                               ; No predecessors!
  br label %62

62:                                               ; preds = %61, %37
  %63 = load i1, ptr %8, align 1
  br i1 %63, label %64, label %65

64:                                               ; preds = %62
  call void @llvm.lifetime.end.p0(i64 16, ptr %7) #3
  br label %65

65:                                               ; preds = %64, %62
  call void @llvm.lifetime.end.p0(i64 1, ptr %6) #3
  br label %72

66:                                               ; preds = %58, %53
  br label %71

67:                                               ; preds = %46
  call void @llvm.lifetime.start.p0(i64 8, ptr %13) #3
  %68 = call i64 @_ZN9grpc_core9Timestamp3NowEv()
  %69 = getelementptr inbounds nuw %"class.grpc_core::Timestamp", ptr %13, i32 0, i32 0
  store i64 %68, ptr %69, align 8
  %70 = getelementptr inbounds nuw %"class.grpc_core::Chttp2WriteSizePolicy", ptr %14, i32 0, i32 1
  call void @llvm.memcpy.p0.p0.i64(ptr align 8 %70, ptr align 8 %13, i64 8, i1 false), !tbaa.struct !14
  call void @llvm.lifetime.end.p0(i64 8, ptr %13) #3
  br label %71

71:                                               ; preds = %67, %66
  ret void

72:                                               ; preds = %65
  %73 = load ptr, ptr %11, align 8
  %74 = load i32, ptr %12, align 4
  %75 = insertvalue { ptr, i32 } poison, ptr %73, 0
  %76 = insertvalue { ptr, i32 } %75, i32 %74, 1
  resume { ptr, i32 } %76
}