; Function Attrs: uwtable
define void @_ZN9grpc_core21Chttp2WriteSizePolicy10BeginWriteEm(ptr noundef nonnull align 8 captures(none) dereferenceable(17) %0, i64 noundef %1) local_unnamed_addr #4 align 2 personality ptr @__gxx_personality_v0 {
  %3 = alloca %"class.absl::lts_20240722::log_internal::LogMessageFatal", align 8
  %4 = getelementptr inbounds nuw i8, ptr %0, i64 8
  %5 = load i64, ptr %4, align 8, !tbaa !9
  %6 = icmp eq i64 %5, 9223372036854775807
  br i1 %6, label %.critedge, label %7, !prof !10

7:                                                ; preds = %2
  call void @llvm.lifetime.start.p0(i64 16, ptr nonnull %3) #11
  call void @_ZN4absl12lts_2024072212log_internal15LogMessageFatalC1EPKciSt17basic_string_viewIcSt11char_traitsIcEE(ptr noundef nonnull align 8 dereferenceable(16) %3, ptr noundef nonnull @.str, i32 noundef 28, i64 48, ptr nonnull @.str.1) #12
  call void @_ZN4absl12lts_2024072212log_internal15LogMessageFatalD1Ev(ptr noundef nonnull align 8 dereferenceable(16) %3) #13
  unreachable

.critedge:                                        ; preds = %2
  %8 = load i64, ptr %0, align 8, !tbaa !3
  %9 = mul i64 %8, 7
  %10 = udiv i64 %9, 10
  %11 = icmp ult i64 %1, %10
  br i1 %11, label %12, label %17

12:                                               ; preds = %.critedge
  %13 = getelementptr inbounds nuw i8, ptr %0, i64 16
  %14 = load i8, ptr %13, align 8, !tbaa !11
  %15 = icmp slt i8 %14, 0
  br i1 %15, label %16, label %24

16:                                               ; preds = %12
  store i8 0, ptr %13, align 8, !tbaa !11
  br label %24

17:                                               ; preds = %.critedge
  %.not.i.i = icmp eq ptr @_ZTHN9grpc_core9Timestamp25thread_local_time_source_E, null
  br i1 %.not.i.i, label %_ZN9grpc_core9Timestamp3NowEv.exit, label %18

18:                                               ; preds = %17
  tail call void @_ZTHN9grpc_core9Timestamp25thread_local_time_source_E()
  br label %_ZN9grpc_core9Timestamp3NowEv.exit

_ZN9grpc_core9Timestamp3NowEv.exit:               ; preds = %17, %18
  %19 = tail call noundef align 8 ptr @llvm.threadlocal.address.p0(ptr align 8 @_ZN9grpc_core9Timestamp25thread_local_time_source_E)
  %20 = load ptr, ptr %19, align 8, !tbaa !12
  %21 = load ptr, ptr %20, align 8, !tbaa !15
  %22 = load ptr, ptr %21, align 8
  %23 = tail call i64 %22(ptr noundef nonnull align 8 dereferenceable(8) %20)
  store i64 %23, ptr %4, align 8, !tbaa !17
  br label %24

24:                                               ; preds = %12, %16, %_ZN9grpc_core9Timestamp3NowEv.exit
  ret void
}